; Function Attrs: nounwind ssp uwtable
define hidden noundef i32 @_sodium_blake2b_init(ptr noundef %0, i8 noundef zeroext %1) local_unnamed_addr #2 {
  %3 = alloca [1 x %struct.blake2b_param_], align 16
  call void @llvm.lifetime.start.p0(i64 64, ptr nonnull %3) #8
  %4 = add i8 %1, -65
  %or.cond = icmp ult i8 %4, -64
  br i1 %or.cond, label %5, label %6

5:                                                ; preds = %2
  tail call void @sodium_misuse() #9
  unreachable

6:                                                ; preds = %2
  store i8 %1, ptr %3, align 16
  %7 = getelementptr inbounds nuw i8, ptr %3, i64 1
  store i8 0, ptr %7, align 1
  %8 = getelementptr inbounds nuw i8, ptr %3, i64 2
  store i8 1, ptr %8, align 2
  %9 = getelementptr inbounds nuw i8, ptr %3, i64 3
  store i8 1, ptr %9, align 1
  %10 = getelementptr inbounds nuw i8, ptr %3, i64 4
  call void @llvm.memset.p0.i64(ptr noundef nonnull align 4 dereferenceable(60) %10, i8 0, i64 60, i1 false)
  tail call void @llvm.memcpy.p0.p0.i64(ptr noundef nonnull align 1 dereferenceable(64) %0, ptr noundef nonnull align 16 dereferenceable(64) @blake2b_IV, i64 64, i1 false)
  %11 = getelementptr inbounds nuw i8, ptr %0, i64 64
  tail call void @llvm.memset.p0.i64(ptr noundef nonnull align 1 dereferenceable(297) %11, i8 noundef 0, i64 noundef 297, i1 noundef false) #8
  br label %12

12:                                               ; preds = %12, %6
  %.07.i = phi i64 [ 0, %6 ], [ %19, %12 ]
  %13 = shl nuw nsw i64 %.07.i, 3
  %14 = getelementptr i8, ptr %3, i64 %13
  %15 = load i64, ptr %14, align 8
  %16 = getelementptr [8 x i64], ptr %0, i64 0, i64 %.07.i
  %17 = load i64, ptr %16, align 1
  %18 = xor i64 %17, %15
  store i64 %18, ptr %16, align 1
  %19 = add nuw nsw i64 %.07.i, 1
  %exitcond.not.i = icmp eq i64 %19, 8
  br i1 %exitcond.not.i, label %_sodium_blake2b_init_param.exit, label %12, !llvm.loop !4

_sodium_blake2b_init_param.exit:                  ; preds = %12
  call void @llvm.lifetime.end.p0(i64 64, ptr nonnull %3) #8
  ret i32 0
}